target datalayout = "e-m:e-p270:32:32-p271:32:32-p272:64:64-i64:64-i128:128-f80:128-n8:16:32:64-S128"
target triple = "x86_64-pc-linux-gnu"

%struct.dh_st = type { i32, i32, %struct.ffc_params_st, i32, ptr, ptr, i32, ptr, %struct.CRYPTO_REF_COUNT, %struct.crypto_ex_data_st, ptr, ptr, ptr, ptr, i64 }
%struct.ffc_params_st = type { ptr, ptr, ptr, ptr, ptr, i64, i32, i32, i32, i32, i32, ptr, ptr, i32 }
%struct.CRYPTO_REF_COUNT = type { i32 }
%struct.crypto_ex_data_st = type { ptr, ptr }

; Function Attrs: nounwind uwtable
define i32 @DH_check_params(ptr noundef %0, ptr noundef %1) #0 {
  %3 = alloca ptr, align 8
  %4 = alloca ptr, align 8
  %5 = alloca i32, align 4
  %6 = alloca ptr, align 8
  %7 = alloca ptr, align 8
  store ptr %0, ptr %3, align 8, !tbaa !3
  store ptr %1, ptr %4, align 8, !tbaa !10
  call void @llvm.lifetime.start.p0(i64 4, ptr %5) #3
  store i32 0, ptr %5, align 4, !tbaa !8
  call void @llvm.lifetime.start.p0(i64 8, ptr %6) #3
  store ptr null, ptr %6, align 8, !tbaa !12
  call void @llvm.lifetime.start.p0(i64 8, ptr %7) #3
  store ptr null, ptr %7, align 8, !tbaa !14
  %8 = load ptr, ptr %4, align 8, !tbaa !10
  store i32 0, ptr %8, align 4, !tbaa !8
  %9 = load ptr, ptr %3, align 8, !tbaa !3
  %10 = getelementptr inbounds nuw %struct.dh_st, ptr %9, i32 0, i32 11
  %11 = load ptr, ptr %10, align 8, !tbaa !16
  %12 = call ptr @BN_CTX_new_ex(ptr noundef %11)
  store ptr %12, ptr %7, align 8, !tbaa !14
  %13 = load ptr, ptr %7, align 8, !tbaa !14
  %14 = icmp eq ptr %13, null
  br i1 %14, label %15, label %16

15:                                               ; preds = %2
  br label %107

16:                                               ; preds = %2
  %17 = load ptr, ptr %7, align 8, !tbaa !14
  call void @BN_CTX_start(ptr noundef %17)
  %18 = load ptr, ptr %7, align 8, !tbaa !14
  %19 = call ptr @BN_CTX_get(ptr noundef %18)
  store ptr %19, ptr %6, align 8, !tbaa !12
  %20 = load ptr, ptr %6, align 8, !tbaa !12
  %21 = icmp eq ptr %20, null
  br i1 %21, label %22, label %23

22:                                               ; preds = %16
  br label %107

23:                                               ; preds = %16
  %24 = load ptr, ptr %3, align 8, !tbaa !3
  %25 = getelementptr inbounds nuw %struct.dh_st, ptr %24, i32 0, i32 2
  %26 = getelementptr inbounds nuw %struct.ffc_params_st, ptr %25, i32 0, i32 0
  %27 = load ptr, ptr %26, align 8, !tbaa !28
  %28 = call i32 @BN_is_odd(ptr noundef %27)
  %29 = icmp ne i32 %28, 0
  br i1 %29, label %34, label %30

30:                                               ; preds = %23
  %31 = load ptr, ptr %4, align 8, !tbaa !10
  %32 = load i32, ptr %31, align 4, !tbaa !8
  %33 = or i32 %32, 1
  store i32 %33, ptr %31, align 4, !tbaa !8
  br label %34

34:                                               ; preds = %30, %23
  %35 = load ptr, ptr %3, align 8, !tbaa !3
  %36 = getelementptr inbounds nuw %struct.dh_st, ptr %35, i32 0, i32 2
  %37 = getelementptr inbounds nuw %struct.ffc_params_st, ptr %36, i32 0, i32 2
  %38 = load ptr, ptr %37, align 8, !tbaa !29
  %39 = call i32 @BN_is_negative(ptr noundef %38)
  %40 = icmp ne i32 %39, 0
  br i1 %40, label %55, label %41

41:                                               ; preds = %34
  %42 = load ptr, ptr %3, align 8, !tbaa !3
  %43 = getelementptr inbounds nuw %struct.dh_st, ptr %42, i32 0, i32 2
  %44 = getelementptr inbounds nuw %struct.ffc_params_st, ptr %43, i32 0, i32 2
  %45 = load ptr, ptr %44, align 8, !tbaa !29
  %46 = call i32 @BN_is_zero(ptr noundef %45)
  %47 = icmp ne i32 %46, 0
  br i1 %47, label %55, label %48

48:                                               ; preds = %41
  %49 = load ptr, ptr %3, align 8, !tbaa !3
  %50 = getelementptr inbounds nuw %struct.dh_st, ptr %49, i32 0, i32 2
  %51 = getelementptr inbounds nuw %struct.ffc_params_st, ptr %50, i32 0, i32 2
  %52 = load ptr, ptr %51, align 8, !tbaa !29
  %53 = call i32 @BN_is_one(ptr noundef %52)
  %54 = icmp ne i32 %53, 0
  br i1 %54, label %55, label %59

55:                                               ; preds = %48, %41, %34
  %56 = load ptr, ptr %4, align 8, !tbaa !10
  %57 = load i32, ptr %56, align 4, !tbaa !8
  %58 = or i32 %57, 8
  store i32 %58, ptr %56, align 4, !tbaa !8
  br label %59

59:                                               ; preds = %55, %48
  %60 = load ptr, ptr %6, align 8, !tbaa !12
  %61 = load ptr, ptr %3, align 8, !tbaa !3
  %62 = getelementptr inbounds nuw %struct.dh_st, ptr %61, i32 0, i32 2
  %63 = getelementptr inbounds nuw %struct.ffc_params_st, ptr %62, i32 0, i32 0
  %64 = load ptr, ptr %63, align 8, !tbaa !28
  %65 = call ptr @BN_copy(ptr noundef %60, ptr noundef %64)
  %66 = icmp eq ptr %65, null
  br i1 %66, label %71, label %67

67:                                               ; preds = %59
  %68 = load ptr, ptr %6, align 8, !tbaa !12
  %69 = call i32 @BN_sub_word(ptr noundef %68, i64 noundef 1)
  %70 = icmp ne i32 %69, 0
  br i1 %70, label %72, label %71

71:                                               ; preds = %67, %59
  br label %107

72:                                               ; preds = %67
  %73 = load ptr, ptr %3, align 8, !tbaa !3
  %74 = getelementptr inbounds nuw %struct.dh_st, ptr %73, i32 0, i32 2
  %75 = getelementptr inbounds nuw %struct.ffc_params_st, ptr %74, i32 0, i32 2
  %76 = load ptr, ptr %75, align 8, !tbaa !29
  %77 = load ptr, ptr %6, align 8, !tbaa !12
  %78 = call i32 @BN_cmp(ptr noundef %76, ptr noundef %77)
  %79 = icmp sge i32 %78, 0
  br i1 %79, label %80, label %84

80:                                               ; preds = %72
  %81 = load ptr, ptr %4, align 8, !tbaa !10
  %82 = load i32, ptr %81, align 4, !tbaa !8
  %83 = or i32 %82, 8
  store i32 %83, ptr %81, align 4, !tbaa !8
  br label %84

84:                                               ; preds = %80, %72
  %85 = load ptr, ptr %3, align 8, !tbaa !3
  %86 = getelementptr inbounds nuw %struct.dh_st, ptr %85, i32 0, i32 2
  %87 = getelementptr inbounds nuw %struct.ffc_params_st, ptr %86, i32 0, i32 0
  %88 = load ptr, ptr %87, align 8, !tbaa !28
  %89 = call i32 @BN_num_bits(ptr noundef %88)
  %90 = icmp slt i32 %89, 512
  br i1 %90, label %91, label %95

91:                                               ; preds = %84
  %92 = load ptr, ptr %4, align 8, !tbaa !10
  %93 = load i32, ptr %92, align 4, !tbaa !8
  %94 = or i32 %93, 128
  store i32 %94, ptr %92, align 4, !tbaa !8
  br label %95

95:                                               ; preds = %91, %84
  %96 = load ptr, ptr %3, align 8, !tbaa !3
  %97 = getelementptr inbounds nuw %struct.dh_st, ptr %96, i32 0, i32 2
  %98 = getelementptr inbounds nuw %struct.ffc_params_st, ptr %97, i32 0, i32 0
  %99 = load ptr, ptr %98, align 8, !tbaa !28
  %100 = call i32 @BN_num_bits(ptr noundef %99)
  %101 = icmp sgt i32 %100, 10000
  br i1 %101, label %102, label %106

102:                                              ; preds = %95
  %103 = load ptr, ptr %4, align 8, !tbaa !10
  %104 = load i32, ptr %103, align 4, !tbaa !8
  %105 = or i32 %104, 256
  store i32 %105, ptr %103, align 4, !tbaa !8
  br label %106

106:                                              ; preds = %102, %95
  store i32 1, ptr %5, align 4, !tbaa !8
  br label %107

107:                                              ; preds = %106, %71, %22, %15
  %108 = load ptr, ptr %7, align 8, !tbaa !14
  call void @BN_CTX_end(ptr noundef %108)
  %109 = load ptr, ptr %7, align 8, !tbaa !14
  call void @BN_CTX_free(ptr noundef %109)
  %110 = load i32, ptr %5, align 4, !tbaa !8
  call void @llvm.lifetime.end.p0(i64 8, ptr %7) #3
  call void @llvm.lifetime.end.p0(i64 8, ptr %6) #3
  call void @llvm.lifetime.end.p0(i64 4, ptr %5) #3
  ret i32 %110
}