; Function Attrs: nounwind uwtable
define range(i32 0, 2) i32 @DH_check_params(ptr noundef readonly captures(none) %0, ptr noundef captures(none) initializes((0, 4)) %1) local_unnamed_addr #0 {
  store i32 0, ptr %1, align 4, !tbaa !3
  %3 = getelementptr inbounds nuw i8, ptr %0, i64 176
  %4 = load ptr, ptr %3, align 8, !tbaa !7
  %5 = tail call ptr @BN_CTX_new_ex(ptr noundef %4) #3
  %6 = icmp eq ptr %5, null
  br i1 %6, label %57, label %7

7:                                                ; preds = %2
  tail call void @BN_CTX_start(ptr noundef nonnull %5) #3
  %8 = tail call ptr @BN_CTX_get(ptr noundef nonnull %5) #3
  %9 = icmp eq ptr %8, null
  br i1 %9, label %57, label %10

10:                                               ; preds = %7
  %11 = getelementptr inbounds nuw i8, ptr %0, i64 8
  %12 = load ptr, ptr %11, align 8, !tbaa !21
  %13 = tail call i32 @BN_is_odd(ptr noundef %12) #3
  %.not = icmp eq i32 %13, 0
  br i1 %.not, label %14, label %17

14:                                               ; preds = %10
  %15 = load i32, ptr %1, align 4, !tbaa !3
  %16 = or i32 %15, 1
  store i32 %16, ptr %1, align 4, !tbaa !3
  br label %17

17:                                               ; preds = %14, %10
  %18 = getelementptr inbounds nuw i8, ptr %0, i64 24
  %19 = load ptr, ptr %18, align 8, !tbaa !22
  %20 = tail call i32 @BN_is_negative(ptr noundef %19) #3
  %.not26 = icmp eq i32 %20, 0
  br i1 %.not26, label %21, label %27

21:                                               ; preds = %17
  %22 = load ptr, ptr %18, align 8, !tbaa !22
  %23 = tail call i32 @BN_is_zero(ptr noundef %22) #3
  %.not27 = icmp eq i32 %23, 0
  br i1 %.not27, label %24, label %27

24:                                               ; preds = %21
  %25 = load ptr, ptr %18, align 8, !tbaa !22
  %26 = tail call i32 @BN_is_one(ptr noundef %25) #3
  %.not28 = icmp eq i32 %26, 0
  br i1 %.not28, label %30, label %27

27:                                               ; preds = %24, %21, %17
  %28 = load i32, ptr %1, align 4, !tbaa !3
  %29 = or i32 %28, 8
  store i32 %29, ptr %1, align 4, !tbaa !3
  br label %30

30:                                               ; preds = %27, %24
  %31 = load ptr, ptr %11, align 8, !tbaa !21
  %32 = tail call ptr @BN_copy(ptr noundef nonnull %8, ptr noundef %31) #3
  %33 = icmp eq ptr %32, null
  br i1 %33, label %57, label %34

34:                                               ; preds = %30
  %35 = tail call i32 @BN_sub_word(ptr noundef nonnull %8, i64 noundef 1) #3
  %.not29 = icmp eq i32 %35, 0
  br i1 %.not29, label %57, label %36

36:                                               ; preds = %34
  %37 = load ptr, ptr %18, align 8, !tbaa !22
  %38 = tail call i32 @BN_cmp(ptr noundef %37, ptr noundef nonnull %8) #3
  %39 = icmp sgt i32 %38, -1
  br i1 %39, label %40, label %43

40:                                               ; preds = %36
  %41 = load i32, ptr %1, align 4, !tbaa !3
  %42 = or i32 %41, 8
  store i32 %42, ptr %1, align 4, !tbaa !3
  br label %43

43:                                               ; preds = %40, %36
  %44 = load ptr, ptr %11, align 8, !tbaa !21
  %45 = tail call i32 @BN_num_bits(ptr noundef %44) #3
  %46 = icmp slt i32 %45, 512
  br i1 %46, label %47, label %50

47:                                               ; preds = %43
  %48 = load i32, ptr %1, align 4, !tbaa !3
  %49 = or i32 %48, 128
  store i32 %49, ptr %1, align 4, !tbaa !3
  br label %50

50:                                               ; preds = %47, %43
  %51 = load ptr, ptr %11, align 8, !tbaa !21
  %52 = tail call i32 @BN_num_bits(ptr noundef %51) #3
  %53 = icmp sgt i32 %52, 10000
  br i1 %53, label %54, label %57

54:                                               ; preds = %50
  %55 = load i32, ptr %1, align 4, !tbaa !3
  %56 = or i32 %55, 256
  store i32 %56, ptr %1, align 4, !tbaa !3
  br label %57

57:                                               ; preds = %50, %54, %30, %34, %7, %2
  %.0 = phi i32 [ 0, %2 ], [ 0, %7 ], [ 0, %30 ], [ 0, %34 ], [ 1, %54 ], [ 1, %50 ]
  tail call void @BN_CTX_end(ptr noundef %5) #3
  tail call void @BN_CTX_free(ptr noundef %5) #3
  ret i32 %.0
}